target datalayout = "e-m:e-p270:32:32-p271:32:32-p272:64:64-i64:64-i128:128-f80:128-n8:16:32:64-S128"
target triple = "x86_64-pc-linux-gnu"

%class.QString = type { %struct.QArrayDataPointer }
%struct.QArrayDataPointer = type { ptr, ptr, i64 }
%class.QObject = type { ptr, %class.QScopedPointer }
%class.QScopedPointer = type { ptr }
%struct.nstime_t = type { i64, i32 }
%class.QBrush = type { %"class.std::unique_ptr" }
%"class.std::unique_ptr" = type { %"struct.std::__uniq_ptr_data" }
%"struct.std::__uniq_ptr_data" = type { %"class.std::__uniq_ptr_impl" }
%"class.std::__uniq_ptr_impl" = type { %"class.std::tuple" }
%"class.std::tuple" = type { %"struct.std::_Tuple_impl" }
%"struct.std::_Tuple_impl" = type { %"struct.std::_Head_base.28" }
%"struct.std::_Head_base.28" = type { ptr }
%class.IOGraph = type <{ %class.QObject, i32, i32, ptr, %class.QString, %class.QString, i8, i8, i8, [5 x i8], ptr, ptr, %class.QString, %class.QString, %class.QBrush, i32, [4 x i8], %class.QString, i32, i32, %struct.nstime_t, i8, [7 x i8], %"class.std::vector", i32, [4 x i8] }>
%"class.std::vector" = type { %"struct.std::_Vector_base" }
%"struct.std::_Vector_base" = type { %"struct.std::_Vector_base<_io_graph_item_t, std::allocator<_io_graph_item_t>>::_Vector_impl" }
%"struct.std::_Vector_base<_io_graph_item_t, std::allocator<_io_graph_item_t>>::_Vector_impl" = type { %"struct.std::_Vector_base<_io_graph_item_t, std::allocator<_io_graph_item_t>>::_Vector_impl_data" }
%"struct.std::_Vector_base<_io_graph_item_t, std::allocator<_io_graph_item_t>>::_Vector_impl_data" = type { ptr, ptr, ptr }

; Function Attrs: mustprogress null_pointer_is_valid sspstrong uwtable
define void @_ZN7IOGraph12setNeedRetapEb(ptr noundef align 8 dereferenceable_or_null(252) %0, i1 noundef zeroext %1) #3 align 2 {
  %3 = alloca ptr, align 8
  %4 = alloca i8, align 1
  store ptr %0, ptr %3, align 8
  %5 = zext i1 %1 to i8
  store i8 %5, ptr %4, align 1
  %6 = load ptr, ptr %3, align 8
  %7 = getelementptr inbounds nuw %class.IOGraph, ptr %6, i32 0, i32 7
  %8 = load i8, ptr %7, align 1, !range !6, !noundef !7
  %9 = trunc i8 %8 to i1
  br i1 %9, label %10, label %14

10:                                               ; preds = %2
  %11 = load i8, ptr %4, align 1, !range !6, !noundef !7
  %12 = trunc i8 %11 to i1
  br i1 %12, label %13, label %14

13:                                               ; preds = %10
  call void @_ZN7IOGraph12requestRetapEv(ptr noundef align 8 dereferenceable_or_null(252) %6)
  br label %19

14:                                               ; preds = %10, %2
  %15 = load i8, ptr %4, align 1, !range !6, !noundef !7
  %16 = trunc i8 %15 to i1
  %17 = getelementptr inbounds nuw %class.IOGraph, ptr %6, i32 0, i32 8
  %18 = zext i1 %16 to i8
  store i8 %18, ptr %17, align 2
  br label %19

19:                                               ; preds = %14, %13
  ret void
}

; Function Attrs: mustprogress null_pointer_is_valid sspstrong uwtable
define void @_ZN7IOGraph13setValueUnitsEi(ptr noundef align 8 dereferenceable_or_null(252) %0, i32 noundef %1) #3 align 2 {
  %3 = alloca ptr, align 8
  %4 = alloca i32, align 4
  %5 = alloca i32, align 4
  store ptr %0, ptr %3, align 8
  store i32 %1, ptr %4, align 4
  %6 = load ptr, ptr %3, align 8
  %7 = load i32, ptr %4, align 4
  %8 = icmp sge i32 %7, 0
  br i1 %8, label %9, label %33

9:                                                ; preds = %2
  %10 = load i32, ptr %4, align 4
  %11 = icmp sle i32 %10, 10
  br i1 %11, label %12, label %33

12:                                               ; preds = %9
  call void @llvm.lifetime.start.p0(i64 4, ptr %5) #2
  %13 = getelementptr inbounds nuw %class.IOGraph, ptr %6, i32 0, i32 15
  %14 = load i32, ptr %13, align 8
  store i32 %14, ptr %5, align 4
  %15 = load i32, ptr %4, align 4
  %16 = getelementptr inbounds nuw %class.IOGraph, ptr %6, i32 0, i32 15
  store i32 %15, ptr %16, align 8
  %17 = load i32, ptr %5, align 4
  %18 = load i32, ptr %4, align 4
  %19 = icmp ne i32 %17, %18
  br i1 %19, label %20, label %32

20:                                               ; preds = %12
  %21 = getelementptr inbounds nuw %class.IOGraph, ptr %6, i32 0, i32 12
  %22 = call noundef zeroext i1 @_ZN7IOGraph9setFilterERK7QString(ptr noundef align 8 dereferenceable_or_null(252) %6, ptr noundef align 8 dereferenceable(24) %21)
  br i1 %22, label %23, label %31

23:                                               ; preds = %20
  %24 = load i32, ptr %4, align 4
  %25 = icmp eq i32 %24, 10
  br i1 %25, label %29, label %26

26:                                               ; preds = %23
  %27 = load i32, ptr %5, align 4
  %28 = icmp eq i32 %27, 10
  br i1 %28, label %29, label %30

29:                                               ; preds = %26, %23
  call void @_ZN7IOGraph12setNeedRetapEb(ptr noundef align 8 dereferenceable_or_null(252) %6, i1 noundef zeroext true)
  br label %30

30:                                               ; preds = %29, %26
  br label %31

31:                                               ; preds = %30, %20
  br label %32

32:                                               ; preds = %31, %12
  call void @llvm.lifetime.end.p0(i64 4, ptr %5) #2
  br label %33

33:                                               ; preds = %32, %9, %2
  ret void
}