; Function Attrs: mustprogress null_pointer_is_valid sspstrong uwtable
define void @_ZN7IOGraph13setValueUnitsEi(ptr noundef align 8 dereferenceable_or_null(252) %0, i32 noundef %1) local_unnamed_addr #2 align 2 {
  %or.cond = icmp ult i32 %1, 11
  br i1 %or.cond, label %3, label %_ZN7IOGraph12setNeedRetapEb.exit

3:                                                ; preds = %2
  %4 = getelementptr inbounds nuw i8, ptr %0, i64 160
  %5 = load i32, ptr %4, align 8
  store i32 %1, ptr %4, align 8
  %.not = icmp eq i32 %5, %1
  br i1 %.not, label %_ZN7IOGraph12setNeedRetapEb.exit, label %6

6:                                                ; preds = %3
  %7 = getelementptr inbounds nuw i8, ptr %0, i64 104
  %8 = tail call noundef zeroext i1 @_ZN7IOGraph9setFilterERK7QString(ptr noundef align 8 dereferenceable_or_null(252) %0, ptr noundef nonnull align 8 dereferenceable(24) %7)
  br i1 %8, label %9, label %_ZN7IOGraph12setNeedRetapEb.exit

9:                                                ; preds = %6
  %10 = icmp eq i32 %1, 10
  %11 = icmp eq i32 %5, 10
  %or.cond3 = or i1 %10, %11
  br i1 %or.cond3, label %12, label %_ZN7IOGraph12setNeedRetapEb.exit

12:                                               ; preds = %9
  %13 = getelementptr inbounds nuw i8, ptr %0, i64 81
  %14 = load i8, ptr %13, align 1, !range !12, !noundef !13
  %15 = trunc nuw i8 %14 to i1
  br i1 %15, label %16, label %17

16:                                               ; preds = %12
  tail call void @_ZN7IOGraph12requestRetapEv(ptr noundef align 8 dereferenceable_or_null(252) %0)
  br label %_ZN7IOGraph12setNeedRetapEb.exit

17:                                               ; preds = %12
  %18 = getelementptr inbounds nuw i8, ptr %0, i64 82
  store i8 1, ptr %18, align 2
  br label %_ZN7IOGraph12setNeedRetapEb.exit

_ZN7IOGraph12setNeedRetapEb.exit:                 ; preds = %17, %16, %3, %9, %6, %2
  ret void
}